; Function Attrs: mustprogress nofree norecurse nosync nounwind willreturn memory(readwrite, inaccessiblemem: none) uwtable
define void @_ZN5ImGui14SetScrollHereXEf(float noundef %0) local_unnamed_addr #34 {
  %2 = load ptr, ptr @GImGui, align 8, !tbaa !216
  %3 = getelementptr inbounds nuw i8, ptr %2, i64 5016
  %4 = load ptr, ptr %3, align 8, !tbaa !314
  %5 = getelementptr inbounds nuw i8, ptr %4, i64 88
  %6 = load float, ptr %5, align 8, !tbaa !1123
  %7 = getelementptr inbounds nuw i8, ptr %2, i64 3176
  %8 = load float, ptr %7, align 8, !tbaa !1199
  %9 = fcmp oge float %6, %8
  %10 = select i1 %9, float %6, float %8
  %11 = getelementptr inbounds nuw i8, ptr %2, i64 7540
  %12 = load float, ptr %11, align 4, !tbaa !1308
  %13 = fsub float %12, %10
  %14 = getelementptr inbounds nuw i8, ptr %2, i64 7548
  %15 = load float, ptr %14, align 4, !tbaa !1309
  %16 = fadd float %15, %10
  %17 = fsub float %16, %13
  %18 = tail call noundef float @llvm.fmuladd.f32(float %17, float %0, float %13)
  %19 = getelementptr inbounds nuw i8, ptr %4, i64 40
  %20 = load float, ptr %19, align 8, !tbaa !801
  %21 = fsub float %18, %20
  %22 = getelementptr inbounds nuw i8, ptr %4, i64 112
  %23 = load float, ptr %22, align 8, !tbaa !1107
  %24 = fsub float %21, %23
  %25 = getelementptr inbounds nuw i8, ptr %4, i64 128
  %26 = load float, ptr %25, align 8, !tbaa !1138
  %27 = fsub float %24, %26
  %28 = getelementptr inbounds nuw i8, ptr %4, i64 152
  %29 = load float, ptr %28, align 8, !tbaa !802
  %30 = fadd float %29, %27
  %31 = fptosi float %30 to i32
  %32 = sitofp i32 %31 to float
  %33 = getelementptr inbounds nuw i8, ptr %4, i64 168
  store float %32, ptr %33, align 8, !tbaa !986
  %34 = getelementptr inbounds nuw i8, ptr %4, i64 176
  store float %0, ptr %34, align 8, !tbaa !987
  %35 = getelementptr inbounds nuw i8, ptr %4, i64 184
  %36 = fsub float %6, %10
  %37 = fcmp ole float %36, 0.000000e+00
  %38 = select i1 %37, float 0.000000e+00, float %36
  store float %38, ptr %35, align 8, !tbaa !988
  ret void
}